; Function Attrs: mustprogress nounwind uwtable
define hidden void @_ZN2bv8ackermanD2Ev(ptr noundef nonnull align 8 dereferenceable(72) %this) unnamed_addr #4 align 2 personality ptr @__gxx_personality_v0 {
entry:
  invoke void @_ZN2bv8ackerman5resetEv(ptr noundef nonnull align 8 dereferenceable(72) %this)
          to label %invoke.cont unwind label %terminate.lpad

invoke.cont:                                      ; preds = %entry
  %m_tmp_vv = getelementptr inbounds i8, ptr %this, i64 40
  %0 = load ptr, ptr %m_tmp_vv, align 8
  %cmp.i = icmp eq ptr %0, null
  br i1 %cmp.i, label %invoke.cont2, label %if.end.i

if.end.i:                                         ; preds = %invoke.cont
  invoke void @_ZN6memory10deallocateEPv(ptr noundef nonnull %0)
          to label %invoke.cont2 unwind label %terminate.lpad

invoke.cont2:                                     ; preds = %invoke.cont, %if.end.i
  %m_diff_levels = getelementptr inbounds i8, ptr %this, i64 64
  %1 = load ptr, ptr %m_diff_levels, align 8
  %tobool.not.i.i.i = icmp eq ptr %1, null
  br i1 %tobool.not.i.i.i, label %_ZN7svectorIbjED2Ev.exit, label %if.then.i.i.i

if.then.i.i.i:                                    ; preds = %invoke.cont2
  %add.ptr.i.i.i.i = getelementptr inbounds i8, ptr %1, i64 -8
  invoke void @_ZN6memory10deallocateEPv(ptr noundef nonnull %add.ptr.i.i.i.i)
          to label %_ZN7svectorIbjED2Ev.exit unwind label %terminate.lpad.i.i

terminate.lpad.i.i:                               ; preds = %if.then.i.i.i
  %2 = landingpad { ptr, i32 }
          catch ptr null
  %3 = extractvalue { ptr, i32 } %2, 0
  tail call void @__clang_call_terminate(ptr %3) #15
  unreachable

_ZN7svectorIbjED2Ev.exit:                         ; preds = %invoke.cont2, %if.then.i.i.i
  %m_table = getelementptr inbounds i8, ptr %this, i64 8
  %4 = load ptr, ptr %m_table, align 8
  %cmp.i.i.i.i = icmp eq ptr %4, null
  br i1 %cmp.i.i.i.i, label %_ZN9hashtableIPN2bv8ackerman2vvENS1_7vv_hashENS1_5vv_eqEED2Ev.exit, label %for.cond.preheader.i.i.i.i

for.cond.preheader.i.i.i.i:                       ; preds = %_ZN7svectorIbjED2Ev.exit
  invoke void @_ZN6memory10deallocateEPv(ptr noundef nonnull %4)
          to label %_ZN9hashtableIPN2bv8ackerman2vvENS1_7vv_hashENS1_5vv_eqEED2Ev.exit unwind label %terminate.lpad.i.i1

terminate.lpad.i.i1:                              ; preds = %for.cond.preheader.i.i.i.i
  %5 = landingpad { ptr, i32 }
          catch ptr null
  %6 = extractvalue { ptr, i32 } %5, 0
  tail call void @__clang_call_terminate(ptr %6) #15
  unreachable

_ZN9hashtableIPN2bv8ackerman2vvENS1_7vv_hashENS1_5vv_eqEED2Ev.exit: ; preds = %_ZN7svectorIbjED2Ev.exit, %for.cond.preheader.i.i.i.i
  store ptr null, ptr %m_table, align 8
  ret void

terminate.lpad:                                   ; preds = %if.end.i, %entry
  %7 = landingpad { ptr, i32 }
          catch ptr null
  %8 = extractvalue { ptr, i32 } %7, 0
  tail call void @__clang_call_terminate(ptr %8) #15
  unreachable
}